target datalayout = "e-m:e-p270:32:32-p271:32:32-p272:64:64-i64:64-i128:128-f80:128-n8:16:32:64-S128"
target triple = "x86_64-pc-linux-gnu"

%struct.PLpgSQL_execstate = type { ptr, ptr, ptr, i64, i8, i32, i32, i8, i8, i8, i8, ptr, ptr, ptr, ptr, ptr, ptr, ptr, i32, i32, ptr, ptr, ptr, ptr, ptr, ptr, ptr, ptr, ptr, ptr, i64, ptr, ptr, ptr, ptr, ptr }
%struct.ItemPointerData = type { %struct.BlockIdData, i16 }
%struct.BlockIdData = type { i16, i16 }
%struct.varattrib_1b = type { i8, [0 x i8] }
%struct.varattrib_1b_e = type { i8, i8, [0 x i8] }
%struct.HeapTupleData = type { i32, %struct.ItemPointerData, i32, ptr }
%struct.ExpandedRecordHeader = type { %struct.ExpandedObjectHeader, i32, i32, i32, i32, i32, ptr, i64, ptr, ptr, i32, i64, i64, i32, i8, ptr, ptr, ptr, ptr, ptr, ptr, %struct.MemoryContextCallback }
%struct.ExpandedObjectHeader = type { i32, ptr, ptr, [10 x i8], [10 x i8] }
%struct.MemoryContextCallback = type { ptr, ptr, ptr }
%struct.TupleDescData = type { i32, i32, i32, i32, ptr, [0 x %struct.CompactAttribute] }
%struct.CompactAttribute = type { i32, i16, i8, i8, i8, i8, i8, i8, i8 }
%struct.HeapTupleHeaderData = type { %union.anon, %struct.ItemPointerData, i16, i16, i8, [0 x i8] }
%union.anon = type { %struct.HeapTupleFields }
%struct.HeapTupleFields = type { i32, i32, %union.anon.0 }
%union.anon.0 = type { i32 }
%struct.DatumTupleFields = type { i32, i32, i32 }
%struct.anon.51 = type { i32, [0 x i8] }

@.str.17 = private unnamed_addr constant [57 x i8] c"returned record type does not match expected record type\00", align 1

; Function Attrs: inlinehint nounwind uwtable
define internal void @BlockIdSet(ptr noundef %0, i32 noundef %1) #2 {
  %3 = alloca ptr, align 8
  %4 = alloca i32, align 4
  store ptr %0, ptr %3, align 8
  store i32 %1, ptr %4, align 4
  %5 = load i32, ptr %4, align 4
  %6 = lshr i32 %5, 16
  %7 = trunc i32 %6 to i16
  %8 = load ptr, ptr %3, align 8
  %9 = getelementptr inbounds nuw %struct.BlockIdData, ptr %8, i32 0, i32 0
  store i16 %7, ptr %9, align 2
  %10 = load i32, ptr %4, align 4
  %11 = and i32 %10, 65535
  %12 = trunc i32 %11 to i16
  %13 = load ptr, ptr %3, align 8
  %14 = getelementptr inbounds nuw %struct.BlockIdData, ptr %13, i32 0, i32 1
  store i16 %12, ptr %14, align 2
  ret void
}

; Function Attrs: inlinehint nounwind uwtable
define internal i32 @HeapTupleHeaderGetTypMod(ptr noundef %0) #2 {
  %2 = alloca ptr, align 8
  store ptr %0, ptr %2, align 8
  %3 = load ptr, ptr %2, align 8
  %4 = getelementptr inbounds nuw %struct.HeapTupleHeaderData, ptr %3, i32 0, i32 0
  %5 = getelementptr inbounds nuw %struct.DatumTupleFields, ptr %4, i32 0, i32 1
  %6 = load i32, ptr %5, align 4
  ret i32 %6
}

; Function Attrs: inlinehint nounwind uwtable
define internal i32 @HeapTupleHeaderGetTypeId(ptr noundef %0) #2 {
  %2 = alloca ptr, align 8
  store ptr %0, ptr %2, align 8
  %3 = load ptr, ptr %2, align 8
  %4 = getelementptr inbounds nuw %struct.HeapTupleHeaderData, ptr %3, i32 0, i32 0
  %5 = getelementptr inbounds nuw %struct.DatumTupleFields, ptr %4, i32 0, i32 2
  %6 = load i32, ptr %5, align 4
  ret i32 %6
}

; Function Attrs: inlinehint nounwind uwtable
define internal void @ItemPointerSetInvalid(ptr noundef %0) #2 {
  %2 = alloca ptr, align 8
  store ptr %0, ptr %2, align 8
  %3 = load ptr, ptr %2, align 8
  %4 = getelementptr inbounds nuw %struct.ItemPointerData, ptr %3, i32 0, i32 0
  call void @BlockIdSet(ptr noundef %4, i32 noundef -1)
  %5 = load ptr, ptr %2, align 8
  %6 = getelementptr inbounds nuw %struct.ItemPointerData, ptr %5, i32 0, i32 1
  store i16 0, ptr %6, align 2
  ret void
}

; Function Attrs: inlinehint nounwind uwtable
define internal i32 @HeapTupleHeaderGetDatumLength(ptr noundef %0) #2 {
  %2 = alloca ptr, align 8
  store ptr %0, ptr %2, align 8
  %3 = load ptr, ptr %2, align 8
  %4 = getelementptr inbounds nuw %struct.anon.51, ptr %3, i32 0, i32 0
  %5 = load i32, ptr %4, align 4
  %6 = lshr i32 %5, 2
  %7 = and i32 %6, 1073741823
  ret i32 %7
}

; Function Attrs: nounwind uwtable
define internal ptr @deconstruct_composite_datum(i64 noundef %0, ptr noundef %1) #0 {
  %3 = alloca i64, align 8
  %4 = alloca ptr, align 8
  %5 = alloca ptr, align 8
  %6 = alloca i32, align 4
  %7 = alloca i32, align 4
  store i64 %0, ptr %3, align 8
  store ptr %1, ptr %4, align 8
  call void @llvm.lifetime.start.p0(i64 8, ptr %5) #12
  call void @llvm.lifetime.start.p0(i64 4, ptr %6) #12
  call void @llvm.lifetime.start.p0(i64 4, ptr %7) #12
  %8 = load i64, ptr %3, align 8
  %9 = call ptr @DatumGetPointer(i64 noundef %8)
  %10 = call ptr @pg_detoast_datum(ptr noundef %9)
  store ptr %10, ptr %5, align 8
  %11 = load ptr, ptr %5, align 8
  %12 = call i32 @HeapTupleHeaderGetDatumLength(ptr noundef %11)
  %13 = load ptr, ptr %4, align 8
  %14 = getelementptr inbounds nuw %struct.HeapTupleData, ptr %13, i32 0, i32 0
  store i32 %12, ptr %14, align 8
  %15 = load ptr, ptr %4, align 8
  %16 = getelementptr inbounds nuw %struct.HeapTupleData, ptr %15, i32 0, i32 1
  call void @ItemPointerSetInvalid(ptr noundef %16)
  %17 = load ptr, ptr %4, align 8
  %18 = getelementptr inbounds nuw %struct.HeapTupleData, ptr %17, i32 0, i32 2
  store i32 0, ptr %18, align 4
  %19 = load ptr, ptr %5, align 8
  %20 = load ptr, ptr %4, align 8
  %21 = getelementptr inbounds nuw %struct.HeapTupleData, ptr %20, i32 0, i32 3
  store ptr %19, ptr %21, align 8
  %22 = load ptr, ptr %5, align 8
  %23 = call i32 @HeapTupleHeaderGetTypeId(ptr noundef %22)
  store i32 %23, ptr %6, align 4
  %24 = load ptr, ptr %5, align 8
  %25 = call i32 @HeapTupleHeaderGetTypMod(ptr noundef %24)
  store i32 %25, ptr %7, align 4
  %26 = load i32, ptr %6, align 4
  %27 = load i32, ptr %7, align 4
  %28 = call ptr @lookup_rowtype_tupdesc(i32 noundef %26, i32 noundef %27)
  call void @llvm.lifetime.end.p0(i64 4, ptr %7) #12
  call void @llvm.lifetime.end.p0(i64 4, ptr %6) #12
  call void @llvm.lifetime.end.p0(i64 8, ptr %5) #12
  ret ptr %28
}

; Function Attrs: inlinehint nounwind uwtable
define internal void @HeapTupleHeaderSetTypMod(ptr noundef %0, i32 noundef %1) #2 {
  %3 = alloca ptr, align 8
  %4 = alloca i32, align 4
  store ptr %0, ptr %3, align 8
  store i32 %1, ptr %4, align 4
  %5 = load i32, ptr %4, align 4
  %6 = load ptr, ptr %3, align 8
  %7 = getelementptr inbounds nuw %struct.HeapTupleHeaderData, ptr %6, i32 0, i32 0
  %8 = getelementptr inbounds nuw %struct.DatumTupleFields, ptr %7, i32 0, i32 1
  store i32 %5, ptr %8, align 4
  ret void
}

; Function Attrs: inlinehint nounwind uwtable
define internal void @HeapTupleHeaderSetTypeId(ptr noundef %0, i32 noundef %1) #2 {
  %3 = alloca ptr, align 8
  %4 = alloca i32, align 4
  store ptr %0, ptr %3, align 8
  store i32 %1, ptr %4, align 4
  %5 = load i32, ptr %4, align 4
  %6 = load ptr, ptr %3, align 8
  %7 = getelementptr inbounds nuw %struct.HeapTupleHeaderData, ptr %6, i32 0, i32 0
  %8 = getelementptr inbounds nuw %struct.DatumTupleFields, ptr %7, i32 0, i32 2
  store i32 %5, ptr %8, align 4
  ret void
}

; Function Attrs: inlinehint nounwind uwtable
define internal i64 @PointerGetDatum(ptr noundef %0) #2 {
  %2 = alloca ptr, align 8
  store ptr %0, ptr %2, align 8
  %3 = load ptr, ptr %2, align 8
  %4 = ptrtoint ptr %3 to i64
  ret i64 %4
}

; Function Attrs: inlinehint nounwind uwtable
define internal ptr @expanded_record_get_tupdesc(ptr noundef %0) #2 {
  %2 = alloca ptr, align 8
  %3 = alloca ptr, align 8
  store ptr %0, ptr %3, align 8
  %4 = load ptr, ptr %3, align 8
  %5 = getelementptr inbounds nuw %struct.ExpandedRecordHeader, ptr %4, i32 0, i32 6
  %6 = load ptr, ptr %5, align 8
  %7 = icmp ne ptr %6, null
  %8 = zext i1 %7 to i32
  %9 = icmp ne i32 %8, 0
  %10 = zext i1 %9 to i32
  %11 = sext i32 %10 to i64
  %12 = call i64 @llvm.expect.i64(i64 %11, i64 1)
  %13 = icmp ne i64 %12, 0
  br i1 %13, label %14, label %18

14:                                               ; preds = %1
  %15 = load ptr, ptr %3, align 8
  %16 = getelementptr inbounds nuw %struct.ExpandedRecordHeader, ptr %15, i32 0, i32 6
  %17 = load ptr, ptr %16, align 8
  store ptr %17, ptr %2, align 8
  br label %21

18:                                               ; preds = %1
  %19 = load ptr, ptr %3, align 8
  %20 = call ptr @expanded_record_fetch_tupdesc(ptr noundef %19)
  store ptr %20, ptr %2, align 8
  br label %21

21:                                               ; preds = %18, %14
  %22 = load ptr, ptr %2, align 8
  ret ptr %22
}

; Function Attrs: inlinehint nounwind uwtable
define internal ptr @DatumGetPointer(i64 noundef %0) #2 {
  %2 = alloca i64, align 8
  store i64 %0, ptr %2, align 8
  %3 = load i64, ptr %2, align 8
  %4 = inttoptr i64 %3 to ptr
  ret ptr %4
}

; Function Attrs: nounwind uwtable
define internal void @coerce_function_result_tuple(ptr noundef %0, ptr noundef %1) #0 {
  %3 = alloca ptr, align 8
  %4 = alloca ptr, align 8
  %5 = alloca ptr, align 8
  %6 = alloca ptr, align 8
  %7 = alloca ptr, align 8
  %8 = alloca ptr, align 8
  %9 = alloca i64, align 8
  %10 = alloca ptr, align 8
  %11 = alloca %struct.HeapTupleData, align 8
  store ptr %0, ptr %3, align 8
  store ptr %1, ptr %4, align 8
  call void @llvm.lifetime.start.p0(i64 8, ptr %5) #12
  call void @llvm.lifetime.start.p0(i64 8, ptr %6) #12
  call void @llvm.lifetime.start.p0(i64 8, ptr %7) #12
  %12 = load ptr, ptr %3, align 8
  %13 = getelementptr inbounds nuw %struct.PLpgSQL_execstate, ptr %12, i32 0, i32 3
  %14 = load i64, ptr %13, align 8
  %15 = call ptr @DatumGetPointer(i64 noundef %14)
  %16 = getelementptr inbounds nuw %struct.varattrib_1b, ptr %15, i32 0, i32 0
  %17 = load i8, ptr %16, align 1
  %18 = zext i8 %17 to i32
  %19 = icmp eq i32 %18, 1
  br i1 %19, label %20, label %104

20:                                               ; preds = %2
  %21 = load ptr, ptr %3, align 8
  %22 = getelementptr inbounds nuw %struct.PLpgSQL_execstate, ptr %21, i32 0, i32 3
  %23 = load i64, ptr %22, align 8
  %24 = call ptr @DatumGetPointer(i64 noundef %23)
  %25 = getelementptr inbounds nuw %struct.varattrib_1b_e, ptr %24, i32 0, i32 1
  %26 = load i8, ptr %25, align 1
  %27 = zext i8 %26 to i32
  %28 = and i32 %27, -2
  %29 = icmp eq i32 %28, 2
  br i1 %29, label %30, label %104

30:                                               ; preds = %20
  call void @llvm.lifetime.start.p0(i64 8, ptr %8) #12
  %31 = load ptr, ptr %3, align 8
  %32 = getelementptr inbounds nuw %struct.PLpgSQL_execstate, ptr %31, i32 0, i32 3
  %33 = load i64, ptr %32, align 8
  %34 = call ptr @DatumGetEOHP(i64 noundef %33)
  store ptr %34, ptr %8, align 8
  %35 = load ptr, ptr %8, align 8
  %36 = call ptr @expanded_record_get_tupdesc(ptr noundef %35)
  store ptr %36, ptr %6, align 8
  %37 = load ptr, ptr %6, align 8
  %38 = load ptr, ptr %4, align 8
  %39 = call ptr @convert_tuples_by_position(ptr noundef %37, ptr noundef %38, ptr noundef @.str.17)
  store ptr %39, ptr %7, align 8
  %40 = load ptr, ptr %7, align 8
  %41 = icmp ne ptr %40, null
  br i1 %41, label %42, label %54

42:                                               ; preds = %30
  %43 = load ptr, ptr %8, align 8
  %44 = call ptr @expanded_record_get_tuple(ptr noundef %43)
  store ptr %44, ptr %5, align 8
  %45 = load ptr, ptr %5, align 8
  %46 = load ptr, ptr %7, align 8
  %47 = call ptr @execute_attr_map_tuple(ptr noundef %45, ptr noundef %46)
  store ptr %47, ptr %5, align 8
  %48 = load ptr, ptr %5, align 8
  %49 = load ptr, ptr %4, align 8
  %50 = call ptr @SPI_returntuple(ptr noundef %48, ptr noundef %49)
  %51 = call i64 @PointerGetDatum(ptr noundef %50)
  %52 = load ptr, ptr %3, align 8
  %53 = getelementptr inbounds nuw %struct.PLpgSQL_execstate, ptr %52, i32 0, i32 3
  store i64 %51, ptr %53, align 8
  br label %103

54:                                               ; preds = %30
  %55 = load ptr, ptr %4, align 8
  %56 = getelementptr inbounds nuw %struct.TupleDescData, ptr %55, i32 0, i32 1
  %57 = load i32, ptr %56, align 4
  %58 = load ptr, ptr %8, align 8
  %59 = getelementptr inbounds nuw %struct.ExpandedRecordHeader, ptr %58, i32 0, i32 3
  %60 = load i32, ptr %59, align 8
  %61 = icmp eq i32 %57, %60
  br i1 %61, label %95, label %62

62:                                               ; preds = %54
  %63 = load ptr, ptr %4, align 8
  %64 = getelementptr inbounds nuw %struct.TupleDescData, ptr %63, i32 0, i32 1
  %65 = load i32, ptr %64, align 4
  %66 = icmp eq i32 %65, 2249
  br i1 %66, label %67, label %73

67:                                               ; preds = %62
  %68 = load ptr, ptr %8, align 8
  %69 = getelementptr inbounds nuw %struct.ExpandedRecordHeader, ptr %68, i32 0, i32 2
  %70 = load i32, ptr %69, align 4
  %71 = and i32 %70, 64
  %72 = icmp ne i32 %71, 0
  br i1 %72, label %73, label %95

73:                                               ; preds = %67, %62
  call void @llvm.lifetime.start.p0(i64 8, ptr %9) #12
  call void @llvm.lifetime.start.p0(i64 8, ptr %10) #12
  %74 = load ptr, ptr %8, align 8
  %75 = getelementptr inbounds nuw %struct.ExpandedRecordHeader, ptr %74, i32 0, i32 0
  %76 = call i64 @EOH_get_flat_size(ptr noundef %75)
  store i64 %76, ptr %9, align 8
  %77 = load i64, ptr %9, align 8
  %78 = call ptr @SPI_palloc(i64 noundef %77)
  store ptr %78, ptr %10, align 8
  %79 = load ptr, ptr %8, align 8
  %80 = getelementptr inbounds nuw %struct.ExpandedRecordHeader, ptr %79, i32 0, i32 0
  %81 = load ptr, ptr %10, align 8
  %82 = load i64, ptr %9, align 8
  call void @EOH_flatten_into(ptr noundef %80, ptr noundef %81, i64 noundef %82)
  %83 = load ptr, ptr %10, align 8
  %84 = load ptr, ptr %4, align 8
  %85 = getelementptr inbounds nuw %struct.TupleDescData, ptr %84, i32 0, i32 1
  %86 = load i32, ptr %85, align 4
  call void @HeapTupleHeaderSetTypeId(ptr noundef %83, i32 noundef %86)
  %87 = load ptr, ptr %10, align 8
  %88 = load ptr, ptr %4, align 8
  %89 = getelementptr inbounds nuw %struct.TupleDescData, ptr %88, i32 0, i32 2
  %90 = load i32, ptr %89, align 8
  call void @HeapTupleHeaderSetTypMod(ptr noundef %87, i32 noundef %90)
  %91 = load ptr, ptr %10, align 8
  %92 = call i64 @PointerGetDatum(ptr noundef %91)
  %93 = load ptr, ptr %3, align 8
  %94 = getelementptr inbounds nuw %struct.PLpgSQL_execstate, ptr %93, i32 0, i32 3
  store i64 %92, ptr %94, align 8
  call void @llvm.lifetime.end.p0(i64 8, ptr %10) #12
  call void @llvm.lifetime.end.p0(i64 8, ptr %9) #12
  br label %102

95:                                               ; preds = %67, %54
  %96 = load ptr, ptr %3, align 8
  %97 = getelementptr inbounds nuw %struct.PLpgSQL_execstate, ptr %96, i32 0, i32 3
  %98 = load i64, ptr %97, align 8
  %99 = call i64 @SPI_datumTransfer(i64 noundef %98, i1 noundef zeroext false, i32 noundef -1)
  %100 = load ptr, ptr %3, align 8
  %101 = getelementptr inbounds nuw %struct.PLpgSQL_execstate, ptr %100, i32 0, i32 3
  store i64 %99, ptr %101, align 8
  br label %102

102:                                              ; preds = %95, %73
  br label %103

103:                                              ; preds = %102, %42
  call void @llvm.lifetime.end.p0(i64 8, ptr %8) #12
  br label %135

104:                                              ; preds = %20, %2
  call void @llvm.lifetime.start.p0(i64 24, ptr %11) #12
  %105 = load ptr, ptr %3, align 8
  %106 = getelementptr inbounds nuw %struct.PLpgSQL_execstate, ptr %105, i32 0, i32 3
  %107 = load i64, ptr %106, align 8
  %108 = call ptr @deconstruct_composite_datum(i64 noundef %107, ptr noundef %11)
  store ptr %108, ptr %6, align 8
  store ptr %11, ptr %5, align 8
  %109 = load ptr, ptr %6, align 8
  %110 = load ptr, ptr %4, align 8
  %111 = call ptr @convert_tuples_by_position(ptr noundef %109, ptr noundef %110, ptr noundef @.str.17)
  store ptr %111, ptr %7, align 8
  %112 = load ptr, ptr %7, align 8
  %113 = icmp ne ptr %112, null
  br i1 %113, label %114, label %118

114:                                              ; preds = %104
  %115 = load ptr, ptr %5, align 8
  %116 = load ptr, ptr %7, align 8
  %117 = call ptr @execute_attr_map_tuple(ptr noundef %115, ptr noundef %116)
  store ptr %117, ptr %5, align 8
  br label %118

118:                                              ; preds = %114, %104
  %119 = load ptr, ptr %5, align 8
  %120 = load ptr, ptr %4, align 8
  %121 = call ptr @SPI_returntuple(ptr noundef %119, ptr noundef %120)
  %122 = call i64 @PointerGetDatum(ptr noundef %121)
  %123 = load ptr, ptr %3, align 8
  %124 = getelementptr inbounds nuw %struct.PLpgSQL_execstate, ptr %123, i32 0, i32 3
  store i64 %122, ptr %124, align 8
  br label %125

125:                                              ; preds = %118
  %126 = load ptr, ptr %6, align 8
  %127 = getelementptr inbounds nuw %struct.TupleDescData, ptr %126, i32 0, i32 3
  %128 = load i32, ptr %127, align 4
  %129 = icmp sge i32 %128, 0
  br i1 %129, label %130, label %132

130:                                              ; preds = %125
  %131 = load ptr, ptr %6, align 8
  call void @DecrTupleDescRefCount(ptr noundef %131)
  br label %132

132:                                              ; preds = %130, %125
  br label %133

133:                                              ; preds = %132
  br label %134

134:                                              ; preds = %133
  call void @llvm.lifetime.end.p0(i64 24, ptr %11) #12
  br label %135

135:                                              ; preds = %134, %103
  call void @llvm.lifetime.end.p0(i64 8, ptr %7) #12
  call void @llvm.lifetime.end.p0(i64 8, ptr %6) #12
  call void @llvm.lifetime.end.p0(i64 8, ptr %5) #12
  ret void
}