; Function Attrs: nounwind uwtable
define internal fastcc void @coerce_function_result_tuple(ptr noundef nonnull captures(none) %0, ptr noundef %1) unnamed_addr #0 {
  %3 = alloca %struct.HeapTupleData, align 8
  %4 = getelementptr inbounds nuw i8, ptr %0, i64 24
  %5 = load i64, ptr %4, align 8
  %6 = inttoptr i64 %5 to ptr
  %7 = load i8, ptr %6, align 1
  %8 = icmp eq i8 %7, 1
  br i1 %8, label %9, label %50

9:                                                ; preds = %2
  %10 = getelementptr inbounds nuw i8, ptr %6, i64 1
  %11 = load i8, ptr %10, align 1
  %12 = and i8 %11, -2
  %13 = icmp eq i8 %12, 2
  br i1 %13, label %14, label %50

14:                                               ; preds = %9
  %15 = tail call ptr @DatumGetEOHP(i64 noundef %5) #12
  %16 = getelementptr inbounds nuw i8, ptr %15, i64 72
  %17 = load ptr, ptr %16, align 8
  %.not.i = icmp eq ptr %17, null
  br i1 %.not.i, label %18, label %expanded_record_get_tupdesc.exit, !prof !9

18:                                               ; preds = %14
  %19 = tail call ptr @expanded_record_fetch_tupdesc(ptr noundef nonnull %15) #12
  br label %expanded_record_get_tupdesc.exit

expanded_record_get_tupdesc.exit:                 ; preds = %14, %18
  %.0.i = phi ptr [ %19, %18 ], [ %17, %14 ]
  %20 = tail call ptr @convert_tuples_by_position(ptr noundef %.0.i, ptr noundef %1, ptr noundef nonnull @.str.17) #12
  %.not43 = icmp eq ptr %20, null
  br i1 %.not43, label %26, label %21

21:                                               ; preds = %expanded_record_get_tupdesc.exit
  %22 = tail call ptr @expanded_record_get_tuple(ptr noundef nonnull %15) #12
  %23 = tail call ptr @execute_attr_map_tuple(ptr noundef %22, ptr noundef nonnull %20) #12
  %24 = tail call ptr @SPI_returntuple(ptr noundef %23, ptr noundef %1) #12
  %25 = ptrtoint ptr %24 to i64
  store i64 %25, ptr %4, align 8
  br label %72

26:                                               ; preds = %expanded_record_get_tupdesc.exit
  %27 = getelementptr inbounds nuw i8, ptr %1, i64 4
  %28 = load i32, ptr %27, align 4
  %29 = getelementptr inbounds nuw i8, ptr %15, i64 56
  %30 = load i32, ptr %29, align 8
  %31 = icmp eq i32 %28, %30
  br i1 %31, label %47, label %32

32:                                               ; preds = %26
  %33 = icmp eq i32 %28, 2249
  br i1 %33, label %34, label %38

34:                                               ; preds = %32
  %35 = getelementptr inbounds nuw i8, ptr %15, i64 52
  %36 = load i32, ptr %35, align 4
  %37 = and i32 %36, 64
  %.not44 = icmp eq i32 %37, 0
  br i1 %.not44, label %47, label %38

38:                                               ; preds = %34, %32
  %39 = tail call i64 @EOH_get_flat_size(ptr noundef nonnull %15) #12
  %40 = tail call ptr @SPI_palloc(i64 noundef %39) #12
  tail call void @EOH_flatten_into(ptr noundef nonnull %15, ptr noundef %40, i64 noundef %39) #12
  %41 = load i32, ptr %27, align 4
  %42 = getelementptr inbounds nuw i8, ptr %40, i64 8
  store i32 %41, ptr %42, align 4
  %43 = getelementptr inbounds nuw i8, ptr %1, i64 8
  %44 = load i32, ptr %43, align 8
  %45 = getelementptr inbounds nuw i8, ptr %40, i64 4
  store i32 %44, ptr %45, align 4
  %46 = ptrtoint ptr %40 to i64
  store i64 %46, ptr %4, align 8
  br label %72

47:                                               ; preds = %34, %26
  %48 = load i64, ptr %4, align 8
  %49 = tail call i64 @SPI_datumTransfer(i64 noundef %48, i1 noundef zeroext false, i32 noundef -1) #12
  store i64 %49, ptr %4, align 8
  br label %72

50:                                               ; preds = %9, %2
  call void @llvm.lifetime.start.p0(i64 24, ptr nonnull %3) #12
  %51 = tail call ptr @pg_detoast_datum(ptr noundef nonnull %6) #12
  %.val.i = load i32, ptr %51, align 4
  %52 = lshr i32 %.val.i, 2
  store i32 %52, ptr %3, align 8
  %53 = getelementptr inbounds nuw i8, ptr %3, i64 4
  store i16 -1, ptr %53, align 4
  %54 = getelementptr inbounds nuw i8, ptr %3, i64 6
  store i16 -1, ptr %54, align 2
  %55 = getelementptr inbounds nuw i8, ptr %3, i64 8
  store i16 0, ptr %55, align 8
  %56 = getelementptr inbounds nuw i8, ptr %3, i64 12
  store i32 0, ptr %56, align 4
  %57 = getelementptr inbounds nuw i8, ptr %3, i64 16
  store ptr %51, ptr %57, align 8
  %58 = getelementptr i8, ptr %51, i64 8
  %.val10.i = load i32, ptr %58, align 4
  %59 = getelementptr i8, ptr %51, i64 4
  %.val11.i = load i32, ptr %59, align 4
  %60 = tail call ptr @lookup_rowtype_tupdesc(i32 noundef %.val10.i, i32 noundef %.val11.i) #12
  %61 = tail call ptr @convert_tuples_by_position(ptr noundef %60, ptr noundef %1, ptr noundef nonnull @.str.17) #12
  %.not = icmp eq ptr %61, null
  br i1 %.not, label %64, label %62

62:                                               ; preds = %50
  %63 = call ptr @execute_attr_map_tuple(ptr noundef nonnull %3, ptr noundef nonnull %61) #12
  br label %64

64:                                               ; preds = %62, %50
  %.0 = phi ptr [ %63, %62 ], [ %3, %50 ]
  %65 = call ptr @SPI_returntuple(ptr noundef %.0, ptr noundef %1) #12
  %66 = ptrtoint ptr %65 to i64
  store i64 %66, ptr %4, align 8
  %67 = getelementptr inbounds nuw i8, ptr %60, i64 12
  %68 = load i32, ptr %67, align 4
  %69 = icmp sgt i32 %68, -1
  br i1 %69, label %70, label %71

70:                                               ; preds = %64
  call void @DecrTupleDescRefCount(ptr noundef nonnull %60) #12
  br label %71

71:                                               ; preds = %70, %64
  call void @llvm.lifetime.end.p0(i64 24, ptr nonnull %3) #12
  br label %72

72:                                               ; preds = %21, %47, %38, %71
  ret void
}